; Function Attrs: nounwind uwtable
define dso_local range(i32 0, 2) i32 @setup_tests() local_unnamed_addr #0 {
  %1 = tail call i32 @test_skip_common_options() #5
  %.not = icmp eq i32 %1, 0
  br i1 %.not, label %2, label %3

2:                                                ; preds = %0
  tail call void (ptr, i32, ptr, ...) @test_error(ptr noundef nonnull @.str, i32 noundef 170, ptr noundef nonnull @.str.1) #5
  br label %4

3:                                                ; preds = %0
  tail call void @add_all_tests(ptr noundef nonnull @.str.2, ptr noundef nonnull @test_bio_addr_copy_dup, i32 noundef 6, i32 noundef 1) #5
  br label %4

4:                                                ; preds = %3, %2
  %.0 = phi i32 [ 1, %3 ], [ 0, %2 ]
  ret i32 %.0
}